target datalayout = "e-m:e-p270:32:32-p271:32:32-p272:64:64-i64:64-i128:128-f80:128-n8:16:32:64-S128"
target triple = "x86_64-pc-linux-gnu"

%struct._object = type { %union.anon.41, ptr }
%union.anon.41 = type { i64 }
%struct.PyVarObject = type { %struct._object, i64 }
%struct.PyTupleObject = type { %struct.PyVarObject, [1 x ptr] }
%struct.anon.42 = type { i32, i32 }
%struct.itimerval = type { %struct.timeval, %struct.timeval }
%struct.timeval = type { i64, i64 }

; Function Attrs: alwaysinline nounwind uwtable
define internal i32 @_Py_IsImmortal(ptr noundef %0) #4 {
  %2 = alloca ptr, align 8
  store ptr %0, ptr %2, align 8, !tbaa !179
  %3 = load ptr, ptr %2, align 8, !tbaa !179
  %4 = getelementptr inbounds nuw %struct._object, ptr %3, i32 0, i32 0
  %5 = getelementptr inbounds nuw %struct.anon.42, ptr %4, i32 0, i32 0
  %6 = load i32, ptr %5, align 8, !tbaa !186
  %7 = icmp slt i32 %6, 0
  %8 = zext i1 %7 to i32
  ret i32 %8
}

; Function Attrs: inlinehint nounwind uwtable
define internal void @PyTuple_SET_ITEM(ptr noundef %0, i64 noundef %1, ptr noundef %2) #3 {
  %4 = alloca ptr, align 8
  %5 = alloca i64, align 8
  %6 = alloca ptr, align 8
  %7 = alloca ptr, align 8
  store ptr %0, ptr %4, align 8, !tbaa !179
  store i64 %1, ptr %5, align 8, !tbaa !189
  store ptr %2, ptr %6, align 8, !tbaa !179
  call void @llvm.lifetime.start.p0(i64 8, ptr %7) #10
  %8 = load ptr, ptr %4, align 8, !tbaa !179
  store ptr %8, ptr %7, align 8, !tbaa !202
  %9 = load ptr, ptr %6, align 8, !tbaa !179
  %10 = load ptr, ptr %7, align 8, !tbaa !202
  %11 = getelementptr inbounds nuw %struct.PyTupleObject, ptr %10, i32 0, i32 1
  %12 = load i64, ptr %5, align 8, !tbaa !189
  %13 = getelementptr [1 x ptr], ptr %11, i64 0, i64 %12
  store ptr %9, ptr %13, align 8, !tbaa !179
  call void @llvm.lifetime.end.p0(i64 8, ptr %7) #10
  ret void
}

; Function Attrs: alwaysinline nounwind uwtable
define internal void @Py_DECREF(ptr noundef %0) #4 {
  %2 = alloca ptr, align 8
  store ptr %0, ptr %2, align 8, !tbaa !179
  %3 = load ptr, ptr %2, align 8, !tbaa !179
  %4 = call i32 @_Py_IsImmortal(ptr noundef %3)
  %5 = icmp ne i32 %4, 0
  br i1 %5, label %6, label %7

6:                                                ; preds = %1
  br label %16

7:                                                ; preds = %1
  %8 = load ptr, ptr %2, align 8, !tbaa !179
  %9 = getelementptr inbounds nuw %struct._object, ptr %8, i32 0, i32 0
  %10 = getelementptr inbounds nuw %struct.anon.42, ptr %9, i32 0, i32 0
  %11 = load i32, ptr %10, align 8, !tbaa !186
  %12 = add i32 %11, -1
  store i32 %12, ptr %10, align 8, !tbaa !186
  %13 = icmp eq i32 %12, 0
  br i1 %13, label %14, label %16

14:                                               ; preds = %7
  %15 = load ptr, ptr %2, align 8, !tbaa !179
  call void @_Py_Dealloc(ptr noundef %15)
  br label %16

16:                                               ; preds = %6, %14, %7
  ret void
}

; Function Attrs: inlinehint nounwind uwtable
define internal double @double_from_timeval(ptr noundef %0) #3 {
  %2 = alloca ptr, align 8
  store ptr %0, ptr %2, align 8, !tbaa !209
  %3 = load ptr, ptr %2, align 8, !tbaa !209
  %4 = getelementptr inbounds nuw %struct.timeval, ptr %3, i32 0, i32 0
  %5 = load i64, ptr %4, align 8, !tbaa !211
  %6 = sitofp i64 %5 to double
  %7 = load ptr, ptr %2, align 8, !tbaa !209
  %8 = getelementptr inbounds nuw %struct.timeval, ptr %7, i32 0, i32 1
  %9 = load i64, ptr %8, align 8, !tbaa !213
  %10 = sitofp i64 %9 to double
  %11 = fdiv double %10, 1.000000e+06
  %12 = fadd double %6, %11
  ret double %12
}

; Function Attrs: nounwind uwtable
define internal ptr @itimer_retval(ptr noundef %0) #0 {
  %2 = alloca ptr, align 8
  %3 = alloca ptr, align 8
  %4 = alloca ptr, align 8
  %5 = alloca ptr, align 8
  %6 = alloca i32, align 4
  store ptr %0, ptr %3, align 8, !tbaa !214
  call void @llvm.lifetime.start.p0(i64 8, ptr %4) #10
  call void @llvm.lifetime.start.p0(i64 8, ptr %5) #10
  %7 = call ptr @PyTuple_New(i64 noundef 2)
  store ptr %7, ptr %4, align 8, !tbaa !179
  %8 = load ptr, ptr %4, align 8, !tbaa !179
  %9 = icmp eq ptr %8, null
  br i1 %9, label %10, label %11

10:                                               ; preds = %1
  store ptr null, ptr %2, align 8
  store i32 1, ptr %6, align 4
  br label %33

11:                                               ; preds = %1
  %12 = load ptr, ptr %3, align 8, !tbaa !214
  %13 = getelementptr inbounds nuw %struct.itimerval, ptr %12, i32 0, i32 1
  %14 = call double @double_from_timeval(ptr noundef %13)
  %15 = call ptr @PyFloat_FromDouble(double noundef %14)
  store ptr %15, ptr %5, align 8, !tbaa !179
  %16 = icmp ne ptr %15, null
  br i1 %16, label %19, label %17

17:                                               ; preds = %11
  %18 = load ptr, ptr %4, align 8, !tbaa !179
  call void @Py_DECREF(ptr noundef %18)
  store ptr null, ptr %2, align 8
  store i32 1, ptr %6, align 4
  br label %33

19:                                               ; preds = %11
  %20 = load ptr, ptr %4, align 8, !tbaa !179
  %21 = load ptr, ptr %5, align 8, !tbaa !179
  call void @PyTuple_SET_ITEM(ptr noundef %20, i64 noundef 0, ptr noundef %21)
  %22 = load ptr, ptr %3, align 8, !tbaa !214
  %23 = getelementptr inbounds nuw %struct.itimerval, ptr %22, i32 0, i32 0
  %24 = call double @double_from_timeval(ptr noundef %23)
  %25 = call ptr @PyFloat_FromDouble(double noundef %24)
  store ptr %25, ptr %5, align 8, !tbaa !179
  %26 = icmp ne ptr %25, null
  br i1 %26, label %29, label %27

27:                                               ; preds = %19
  %28 = load ptr, ptr %4, align 8, !tbaa !179
  call void @Py_DECREF(ptr noundef %28)
  store ptr null, ptr %2, align 8
  store i32 1, ptr %6, align 4
  br label %33

29:                                               ; preds = %19
  %30 = load ptr, ptr %4, align 8, !tbaa !179
  %31 = load ptr, ptr %5, align 8, !tbaa !179
  call void @PyTuple_SET_ITEM(ptr noundef %30, i64 noundef 1, ptr noundef %31)
  %32 = load ptr, ptr %4, align 8, !tbaa !179
  store ptr %32, ptr %2, align 8
  store i32 1, ptr %6, align 4
  br label %33

33:                                               ; preds = %29, %27, %17, %10
  call void @llvm.lifetime.end.p0(i64 8, ptr %5) #10
  call void @llvm.lifetime.end.p0(i64 8, ptr %4) #10
  %34 = load ptr, ptr %2, align 8
  ret ptr %34
}