; Function Attrs: nounwind uwtable
define internal fastcc ptr @itimer_retval(ptr noundef nonnull readonly captures(none) %0) unnamed_addr #2 {
  %2 = tail call ptr @PyTuple_New(i64 noundef 2) #15
  %3 = icmp eq ptr %2, null
  br i1 %3, label %Py_DECREF.exit16, label %4

4:                                                ; preds = %1
  %5 = getelementptr inbounds nuw i8, ptr %0, i64 16
  %.val = load i64, ptr %5, align 8, !tbaa !219
  %6 = getelementptr i8, ptr %0, i64 24
  %.val18 = load i64, ptr %6, align 8, !tbaa !221
  %7 = sitofp i64 %.val to double
  %8 = sitofp i64 %.val18 to double
  %9 = fdiv double %8, 1.000000e+06
  %10 = fadd double %9, %7
  %11 = tail call ptr @PyFloat_FromDouble(double noundef %10) #15
  %.not = icmp eq ptr %11, null
  br i1 %.not, label %12, label %18

12:                                               ; preds = %4
  %13 = load i32, ptr %2, align 8, !tbaa !180
  %.not.i15 = icmp sgt i32 %13, -1
  br i1 %.not.i15, label %14, label %Py_DECREF.exit16

14:                                               ; preds = %12
  %15 = add nsw i32 %13, -1
  store i32 %15, ptr %2, align 8, !tbaa !180
  %16 = icmp eq i32 %15, 0
  br i1 %16, label %17, label %Py_DECREF.exit16

17:                                               ; preds = %14
  tail call void @_Py_Dealloc(ptr noundef nonnull %2) #15
  br label %Py_DECREF.exit16

18:                                               ; preds = %4
  %19 = getelementptr inbounds nuw i8, ptr %2, i64 24
  store ptr %11, ptr %19, align 8, !tbaa !176
  %.val19 = load i64, ptr %0, align 8, !tbaa !219
  %20 = getelementptr i8, ptr %0, i64 8
  %.val20 = load i64, ptr %20, align 8, !tbaa !221
  %21 = sitofp i64 %.val19 to double
  %22 = sitofp i64 %.val20 to double
  %23 = fdiv double %22, 1.000000e+06
  %24 = fadd double %23, %21
  %25 = tail call ptr @PyFloat_FromDouble(double noundef %24) #15
  %.not14 = icmp eq ptr %25, null
  br i1 %.not14, label %26, label %32

26:                                               ; preds = %18
  %27 = load i32, ptr %2, align 8, !tbaa !180
  %.not.i = icmp sgt i32 %27, -1
  br i1 %.not.i, label %28, label %Py_DECREF.exit16

28:                                               ; preds = %26
  %29 = add nsw i32 %27, -1
  store i32 %29, ptr %2, align 8, !tbaa !180
  %30 = icmp eq i32 %29, 0
  br i1 %30, label %31, label %Py_DECREF.exit16

31:                                               ; preds = %28
  tail call void @_Py_Dealloc(ptr noundef nonnull %2) #15
  br label %Py_DECREF.exit16

32:                                               ; preds = %18
  %33 = getelementptr i8, ptr %2, i64 32
  store ptr %25, ptr %33, align 8, !tbaa !176
  br label %Py_DECREF.exit16

Py_DECREF.exit16:                                 ; preds = %31, %28, %26, %17, %14, %12, %1, %32
  %.0 = phi ptr [ %2, %32 ], [ null, %1 ], [ null, %12 ], [ null, %14 ], [ null, %17 ], [ null, %26 ], [ null, %28 ], [ null, %31 ]
  ret ptr %.0
}